ccopy_reg
_reconstructor
p0
(csklearn.feature_extraction.dict_vectorizer
DictVectorizer
p1
c__builtin__
object
p2
Ntp3
Rp4
(dp5
S'sort'
p6
I01
sS'feature_names_'
p7
(lp8
Vsig_android_dynamic_code
p9
aVsig_android_hidden_payload
p10
aVsig_android_maware_snadrorat
p11
aVsig_android_native_code
p12
aVsig_android_packer_generic
p13
aVsig_android_reflection_code
p14
aVsig_application_contains_apk
p15
aVsig_application_contains_arm_binaries
p16
aVsig_application_contains_dex
p17
aVsig_application_contains_so
p18
aVsig_application_device_admin
p19
aVsig_application_dropped_dex
p20
aVsig_application_dropped_files
p21
aVsig_application_executed_shell_command
p22
aVsig_application_fingerprint
p23
aVsig_application_getRunningTasks
p24
aVsig_application_getRunningTasks_static
p25
aVsig_application_queried_installed_apps
p26
aVsig_application_queried_private_information
p27
aVsig_application_queried_sms_messages
p28
aVsig_application_reflection
p29
aVsig_application_registered_receiver_runtime
p30
aVsig_application_sent_sms_messages
p31
aVsig_application_setComponentEnabledSetting
p32
aVsig_dead_host
p33
aVsig_network_http
p34
aVsig_network_icmp
p35
aVsig_networkdyndns_checkip
p36
asS'dtype'
p37
cnumpy
float64
p38
sS'vocabulary_'
p39
(dp40
g34
I25
sg17
I8
sg33
I24
sg19
I10
sg15
I6
sg36
I27
sg10
I1
sg13
I4
sg29
I20
sg30
I21
sg20
I11
sg26
I17
sg25
I16
sg23
I14
sg18
I9
sg24
I15
sg12
I3
sg14
I5
sg9
I0
sg21
I12
sg35
I26
sg16
I7
sg31
I22
sg11
I2
sg27
I18
sg28
I19
sg22
I13
sg32
I23
ssS'separator'
p41
S'='
p42
sS'sparse'
p43
I00
sb.