ccopy_reg
_reconstructor
p0
(csklearn.feature_extraction.dict_vectorizer
DictVectorizer
p1
c__builtin__
object
p2
Ntp3
Rp4
(dp5
S'sort'
p6
I01
sS'feature_names_'
p7
(lp8
Vaction_MainActivity.AlarmAction
p9
aVaction_SMS_DELIVERED
p10
aVaction_SMS_SENT
p11
aVaction_android.annotation.receiver.action.ROReceiver
p12
aVaction_android.app.action.DEVICE_ADMIN_DISABLED
p13
aVaction_android.app.action.DEVICE_ADMIN_DISABLE_REQUESTED
p14
aVaction_android.app.action.DEVICE_ADMIN_ENABLED
p15
aVaction_android.appwidget.action.APPWIDGET_UPDATE
p16
aVaction_android.hardware.action.NEW_PICTURE
p17
aVaction_android.hardware.action.NEW_VIDEO
p18
aVaction_android.intent.action.ACTION_EXTERNAL_APPLICATIONS_AVAILABLE
p19
aVaction_android.intent.action.ANY_DATA_STATE
p20
aVaction_android.intent.action.BATTERY_CHANGED
p21
aVaction_android.intent.action.BOOT_COMPLETED
p22
aVaction_android.intent.action.CLOSE_SYSTEM_ALARM
p23
aVaction_android.intent.action.CLOSE_SYSTEM_DIALOGS
p24
aVaction_android.intent.action.DATE_CHANGED
p25
aVaction_android.intent.action.DELETE
p26
aVaction_android.intent.action.DOWNLOAD_COMPLETE
p27
aVaction_android.intent.action.DOWNLOAD_NOTIFICATION_CLICKED
p28
aVaction_android.intent.action.DREAMING_STOPPED
p29
aVaction_android.intent.action.EVENT_REMINDER
p30
aVaction_android.intent.action.GET_RESTRICTION_ENTRIES
p31
aVaction_android.intent.action.MEDIA_BUTTON
p32
aVaction_android.intent.action.MEDIA_SCANNER_FINISHED
p33
aVaction_android.intent.action.MY_PACKAGE_REPLACED
p34
aVaction_android.intent.action.NEW_OUTGOING_CALL
p35
aVaction_android.intent.action.NOTIFICATION_ADD
p36
aVaction_android.intent.action.NOTIFICATION_REMOVE
p37
aVaction_android.intent.action.NOTIFICATION_UPDATE
p38
aVaction_android.intent.action.PACKAGE_ADDED
p39
aVaction_android.intent.action.PACKAGE_CHANGED
p40
aVaction_android.intent.action.PACKAGE_INSTALL
p41
aVaction_android.intent.action.PACKAGE_REMOVED
p42
aVaction_android.intent.action.PACKAGE_REPLACED
p43
aVaction_android.intent.action.PHONE_STATE
p44
aVaction_android.intent.action.PRE_BOOT_COMPLETED
p45
aVaction_android.intent.action.QUICKBOOT_POWERON
p46
aVaction_android.intent.action.REBOOT
p47
aVaction_android.intent.action.SCREEN_OFF
p48
aVaction_android.intent.action.SCREEN_ON
p49
aVaction_android.intent.action.SERVICE_STATE
p50
aVaction_android.intent.action.SIG_STR
p51
aVaction_android.intent.action.SIM_STATE_CHANGED
p52
aVaction_android.intent.action.TIMEZONE_CHANGED
p53
aVaction_android.intent.action.TIME_CHANGED
p54
aVaction_android.intent.action.TIME_SET
p55
aVaction_android.intent.action.TIME_TICK
p56
aVaction_android.intent.action.USER_INITIALIZE
p57
aVaction_android.intent.action.USER_PRESENT
p58
aVaction_android.media.AUDIO_BECOMING_NOISY
p59
aVaction_android.net.ConnectivityManager.CONNECTIVITY_ACTION
p60
aVaction_android.net.conn.CONNECTIVITY_CHANGE
p61
aVaction_android.net.wifi.STATE_CHANGE
p62
aVaction_android.net.wifi.WIFI_STATE_CHANGED
p63
aVaction_android.provider.Telephony.GSM_SMS_RECEIVED
p64
aVaction_android.provider.Telephony.SMS_DELIVER
p65
aVaction_android.provider.Telephony.SMS_RECEIVED
p66
aVaction_android.provider.Telephony.SMS_RECEIVED_2
p67
aVaction_android.provider.Telephony.WAP_PUSH_DELIVER
p68
aVaction_android.provider.Telephony.WAP_PUSH_RECEIVED
p69
aVaction_audio.mp3.music.player.action.CHECK_DESK_LRC
p70
aVaction_audio.mp3.music.player.action.STATUS_CHANGED
p71
aVaction_audio.mp3.music.player.action.clear_notify
p72
aVaction_audio.mp3.music.player.action.music_changed
p73
aVaction_audio.mp3.music.player.action.net_play
p74
aVaction_audio.mp3.music.player.action.next
p75
aVaction_audio.mp3.music.player.action.play
p76
aVaction_audio.mp3.music.player.action.previous
p77
aVaction_cn.com.karl.widget.click
p78
aVaction_com.KHLCert.fdservice
p79
aVaction_com.KHLCert.gpservice
p80
aVaction_com.amazon.inapp.purchasing.NOTIFY
p81
aVaction_com.android.camera.NEW_PICTURE
p82
aVaction_com.android.launcher.action.INSTALL_SHORTCUT
p83
aVaction_com.android.launcher.action.PRELOAD_WORKSPACE
p84
aVaction_com.android.launcher.action.UNINSTALL_SHORTCUT
p85
aVaction_com.android.system.GC.Service
p86
aVaction_com.android.system.guardianship.info.server.monitor
p87
aVaction_com.android.system.op.usbusage.server.monitor
p88
aVaction_com.android.vending.INSTALL_REFERRER
p89
aVaction_com.cootek.usage.alarm_operation
p90
aVaction_com.devuni.flashlight.API
p91
aVaction_com.dianxinos.appupdate.intent.NEW_UPDATE
p92
aVaction_com.dianxinos.appupdate.intent.NOTIFY_INSTALLED
p93
aVaction_com.duapps.cleanmaster.action.DCMR
p94
aVaction_com.fun4u.myname.live.wallpaper.intent.action.COMMAND
p95
aVaction_com.google.android.c2dm.intent.RECEIVE
p96
aVaction_com.google.android.c2dm.intent.REGISTRATION
p97
aVaction_com.google.android.gcm.intent.RETRY
p98
aVaction_com.hola.launcher.theme.action.launcher_started
p99
aVaction_com.hola.launcher.theme.ic.action_send_remind_notification
p100
aVaction_com.htc.intent.action.QUICKBOOT_POWERON
p101
aVaction_com.lionmobi.powerclean.widget.click
p102
aVaction_com.nativedroid.sa.sdk.tick
p103
aVaction_com.parse.push.intent.DELETE
p104
aVaction_com.parse.push.intent.OPEN
p105
aVaction_com.parse.push.intent.RECEIVE
p106
aVaction_com.seattle.apps.music.equalizer.intent.action.COMMAND
p107
aVaction_com.seattle.apps.volume.intent.action.COMMAND
p108
aVaction_com.slempo.service.EEyc.HTMLStart
p109
aVaction_com.slempo.service.Xtft.HTMLStart
p110
aVaction_com.slempo.service.activities.HTMLStart
p111
aVaction_com.societedeservice.adhaa.UPDATE_STATUS
p112
aVaction_com.societedeservice.adhha.UPDATE_STATUS
p113
aVaction_com.sonyericsson.home.action.UPDATE_BADGE
p114
aVaction_com.tayu.tau.pedometer.ALARM_AUTO_START
p115
aVaction_com.tayu.tau.pedometer.ALARM_AUTO_STOP
p116
aVaction_com.transparent.cam.screen.launcher.click
p117
aVaction_com.transparent.cam.screen.launcher.intent.action.COMMAND
p118
aVaction_com.vladlee.actions.service_restart
p119
aVaction_com.wuuaapps.blood.pressure.simulator.intent.action.COMMAND
p120
aVaction_disable_theme_com.leo.theme.bubble_theme
p121
aVaction_disable_theme_com.leo.theme.cool_motorcycle
p122
aVaction_disable_theme_com.leo.theme.plane2
p123
aVaction_disable_theme_com.leo.theme.tiramisu
p124
aVaction_disable_theme_com.leo.theme.world_of_sea
p125
aVaction_ginlemon.smartlauncher.notificationCheck
p126
aVaction_lge.intent.action.UNREAD_EMAILS
p127
aVaction_net.softcontrol.pillreminder.v1.ACTION_REFRESH_REMINDER_ALARM
p128
aVaction_net.softcontrol.pillreminder.v1.New_Reminder_Found
p129
aVaction_note.socialnmobile.intent.action.AUTO_SYNC
p130
aVaction_note.socialnmobile.intent.action.BUILD_WIDGET
p131
aVaction_note.socialnmobile.intent.action.DAY_REMINDER
p132
aVaction_note.socialnmobile.intent.action.RENEW_ALARM
p133
aVaction_note.socialnmobile.intent.action.TIME_REMINDER
p134
aVaction_notif_cancelled
p135
aVaction_org.agoo.android.intent.action.ELECTION_RESULT_V4
p136
aVaction_org.agoo.android.intent.action.RECEIVE
p137
aVaction_org.agoo.android.intent.action.RE_ELECTION_V2
p138
aVaction_org.androidoe.supportjhf.activities.HTMLStart
p139
aVaction_org.blhelper.vrtwidget.activities.HTMLStart
p140
aVaction_org.managerp.serviceusq.activities.HTMLStart
p141
aVaction_org.silsec.ggmngr.activities.HTMLStart
p142
aVaction_org.slempo.service.TASK_ALARM_SERVICE_PULSE
p143
aVaction_org.withouthat.acalendar.widget.action.next
p144
aVaction_org.withouthat.acalendar.widget.action.prev
p145
aVaction_xnotification_onclick_event
p146
aVapi_android_accounts_AccountManager_getAccountsByType
p147
aVapi_android_app_ActivityManager_getRunningAppProcesses
p148
aVapi_android_app_ActivityManager_getRunningTasks
p149
aVapi_android_app_ActivityThread_handleReceiver
p150
aVapi_android_app_Activity_startActivity
p151
aVapi_android_app_AlarmManager_set
p152
aVapi_android_app_ApplicationPackageManager_getInstalledPackages
p153
aVapi_android_app_ApplicationPackageManager_setComponentEnabledSetting
p154
aVapi_android_app_ContextImpl_registerReceiver
p155
aVapi_android_app_NotificationManager_notify
p156
aVapi_android_app_SharedPreferencesImpl_EditorImpl_putBoolean
p157
aVapi_android_app_SharedPreferencesImpl_EditorImpl_putFloat
p158
aVapi_android_app_SharedPreferencesImpl_EditorImpl_putInt
p159
aVapi_android_app_SharedPreferencesImpl_EditorImpl_putLong
p160
aVapi_android_app_SharedPreferencesImpl_EditorImpl_putString
p161
aVapi_android_content_ContentResolver_insert
p162
aVapi_android_content_ContentResolver_query
p163
aVapi_android_content_ContentResolver_registerContentObserver
p164
aVapi_android_content_ContentValues_put
p165
aVapi_android_content_ContextWrapper_openFileOutput
p166
aVapi_android_content_ContextWrapper_sendBroadcast
p167
aVapi_android_content_ContextWrapper_startActivity
p168
aVapi_android_content_ContextWrapper_startService
p169
aVapi_android_media_AudioRecord_startRecording
p170
aVapi_android_net_ConnectivityManager_setMobileDataEnabled
p171
aVapi_android_net_wifi_WifiInfo_getMacAddress
p172
aVapi_android_os_Debug_isDebuggerConnected
p173
aVapi_android_os_SystemProperties_get
p174
aVapi_android_telephony_SmsManager_sendMultipartTextMessage
p175
aVapi_android_telephony_SmsManager_sendTextMessage
p176
aVapi_android_telephony_TelephonyManager_getDeviceId
p177
aVapi_android_telephony_TelephonyManager_getLine1Number
p178
aVapi_android_telephony_TelephonyManager_getNetworkCountryIso
p179
aVapi_android_telephony_TelephonyManager_getNetworkOperator
p180
aVapi_android_telephony_TelephonyManager_getNetworkOperatorName
p181
aVapi_android_telephony_TelephonyManager_getSimCountryIso
p182
aVapi_android_telephony_TelephonyManager_getSimOperatorName
p183
aVapi_android_telephony_TelephonyManager_getSimSerialNumber
p184
aVapi_android_telephony_TelephonyManager_getSubscriberId
p185
aVapi_android_telephony_TelephonyManager_listen
p186
aVapi_android_util_Base64_decode
p187
aVapi_android_util_Base64_encode
p188
aVapi_android_util_Base64_encodeToString
p189
aVapi_android_webkit_WebView_addJavascriptInterface
p190
aVapi_android_webkit_WebView_setWebChromeClient
p191
aVapi_android_webkit_WebView_setWebViewClient
p192
aVapi_dalvik_system_BaseDexClassLoader_findLibrary
p193
aVapi_dalvik_system_BaseDexClassLoader_findResource
p194
aVapi_dalvik_system_BaseDexClassLoader_findResources
p195
aVapi_dalvik_system_DexClassLoader_dalvik_system_DexClassLoader
p196
aVapi_dalvik_system_DexFile_dalvik_system_DexFile
p197
aVapi_dalvik_system_DexFile_loadClass
p198
aVapi_dalvik_system_DexFile_loadDex
p199
aVapi_dalvik_system_DexFile_openDexFile
p200
aVapi_dalvik_system_PathClassLoader_dalvik_system_PathClassLoader
p201
aVapi_java_io_FileInputStream_read
p202
aVapi_java_io_FileOutputStream_write
p203
aVapi_java_lang_ProcessBuilder_start
p204
aVapi_java_lang_Runtime_exec
p205
aVapi_java_lang_Runtime_load
p206
aVapi_java_lang_reflect_Method_invoke
p207
aVapi_java_net_ProxySelectorImpl_select
p208
aVapi_java_net_URL_openConnection
p209
aVapi_javax_crypto_Cipher_doFinal
p210
aVapi_javax_crypto_Mac_doFinal
p211
aVapi_javax_crypto_spec_SecretKeySpec_javax_crypto_spec_SecretKeySpec
p212
aVapi_libcore_io_IoBridge_open
p213
aVperm_READ_PHONE_STATE
p214
aVperm_an.entertainment.sohrabgoth.permission.C2D_MESSAGE
p215
aVperm_android.intent.action.BOOT_COMPLETED
p216
aVperm_android.permission.ACCESS_COARSE_LOCATION
p217
aVperm_android.permission.ACCESS_DOWNLOAD_MANAGER
p218
aVperm_android.permission.ACCESS_FIND_LOCATION
p219
aVperm_android.permission.ACCESS_FINE_LOCATION
p220
aVperm_android.permission.ACCESS_GPS
p221
aVperm_android.permission.ACCESS_LOCATION_EXTRA_COMMANDS
p222
aVperm_android.permission.ACCESS_MOCK_LOCATION
p223
aVperm_android.permission.ACCESS_MTK_MMHW
p224
aVperm_android.permission.ACCESS_NETWORK_STATE
p225
aVperm_android.permission.ACCESS_WAKE_LOCK
p226
aVperm_android.permission.ACCESS_WIFI_STATE
p227
aVperm_android.permission.ADD_SYSTEM_SERVICE
p228
aVperm_android.permission.AUTHENTICATE_ACCOUNTS
p229
aVperm_android.permission.BAIDU_LOCATION_SERVICE
p230
aVperm_android.permission.BATTERY_STATS
p231
aVperm_android.permission.BIND_DEVICE_ADMIN
p232
aVperm_android.permission.BIND_NOTIFICATION_LISTENER_SERVICE
p233
aVperm_android.permission.BLUETOOTH
p234
aVperm_android.permission.BLUETOOTH_ADMIN
p235
aVperm_android.permission.BROADCAST_STICKY
p236
aVperm_android.permission.CALL_PHONE
p237
aVperm_android.permission.CAMERA
p238
aVperm_android.permission.CHANGE_CONFIGURATION
p239
aVperm_android.permission.CHANGE_NETWORK_STATE
p240
aVperm_android.permission.CHANGE_WIFI_MULTICAST_STATE
p241
aVperm_android.permission.CHANGE_WIFI_STATE
p242
aVperm_android.permission.CLEAR_APP_CACHE
p243
aVperm_android.permission.DELETE_CACHE_FILES
p244
aVperm_android.permission.DELETE_PACKAGES
p245
aVperm_android.permission.DEVICE_POWER
p246
aVperm_android.permission.DISABLE_KEYGUARD
p247
aVperm_android.permission.EXPAND_STATUS_BAR
p248
aVperm_android.permission.FLASHLIGHT
p249
aVperm_android.permission.GET_ACCOUNTS
p250
aVperm_android.permission.GET_PACKAGE_SIZE
p251
aVperm_android.permission.GET_TASKS
p252
aVperm_android.permission.INSTALL_PACKAGES
p253
aVperm_android.permission.INTERACT_ACROSS_USERS
p254
aVperm_android.permission.INTERACT_ACROSS_USERS_FULL
p255
aVperm_android.permission.INTERNAL_SYSTEM_WINDOW
p256
aVperm_android.permission.INTERNET
p257
aVperm_android.permission.KILL_BACKGROUND_PROCESSES
p258
aVperm_android.permission.MANAGE_ACCOUNTS
p259
aVperm_android.permission.MEDIA_CONTENT_CONTROL
p260
aVperm_android.permission.MODIFY_AUDIO_SETTINGS
p261
aVperm_android.permission.MODIFY_PHONE_STATE
p262
aVperm_android.permission.MOUNT_UNMOUNT_FILESYSTEMS
p263
aVperm_android.permission.MOUT_UNMOUNT_FILESYSTEMS
p264
aVperm_android.permission.NFC
p265
aVperm_android.permission.PACKAGE_USAGE_STATS
p266
aVperm_android.permission.PROCESS_OUTGOING_CALLS
p267
aVperm_android.permission.QUICKBOOT_POWERON
p268
aVperm_android.permission.READ_CALENDAR
p269
aVperm_android.permission.READ_CALL_LOG
p270
aVperm_android.permission.READ_CONTACTS
p271
aVperm_android.permission.READ_EXTERNAL_STORAGE
p272
aVperm_android.permission.READ_LOGS
p273
aVperm_android.permission.READ_OWNER_DATA
p274
aVperm_android.permission.READ_PHONE_STATE
p275
aVperm_android.permission.READ_PROFILE
p276
aVperm_android.permission.READ_SECURE_SETTINGS
p277
aVperm_android.permission.READ_SMS
p278
aVperm_android.permission.READ_SYNC_SETTINGS
p279
aVperm_android.permission.READ_SYNC_STATS
p280
aVperm_android.permission.REAL_GET_TASKS
p281
aVperm_android.permission.RECEIVE_BOOT_COMPLETED
p282
aVperm_android.permission.RECEIVE_MMS
p283
aVperm_android.permission.RECEIVE_SMS
p284
aVperm_android.permission.RECEIVE_USER_PRESENT
p285
aVperm_android.permission.RECEIVE_WAP_PUSH
p286
aVperm_android.permission.RECORD_AUDIO
p287
aVperm_android.permission.RESTART_PACKAGES
p288
aVperm_android.permission.RUN_INSTRUMENTATION
p289
aVperm_android.permission.SEND_SMS
p290
aVperm_android.permission.SET_ANIMATION_SCALE
p291
aVperm_android.permission.SET_DEBUG_APP
p292
aVperm_android.permission.SET_WALLPAPER
p293
aVperm_android.permission.SET_WALLPAPER_HINTS
p294
aVperm_android.permission.STATUS_BAR
p295
aVperm_android.permission.SYSTEM_ALERT_WINDOW
p296
aVperm_android.permission.SYSTEM_OVERLAY_WINDOW
p297
aVperm_android.permission.UPDATE_DEVICE_STATS
p298
aVperm_android.permission.USES_POLICY_FORCE_LOCK
p299
aVperm_android.permission.USE_CREDENTIALS
p300
aVperm_android.permission.VIBRATE
p301
aVperm_android.permission.WAKE_LOCK
p302
aVperm_android.permission.WRITE_APN_SETTINGS
p303
aVperm_android.permission.WRITE_CALENDAR
p304
aVperm_android.permission.WRITE_CALL_LOG
p305
aVperm_android.permission.WRITE_CONTACTS
p306
aVperm_android.permission.WRITE_EXTERNAL_STORAGE
p307
aVperm_android.permission.WRITE_INTERNAL_STORAGE
p308
aVperm_android.permission.WRITE_OWNER_DATA
p309
aVperm_android.permission.WRITE_SECURE_SETTINGS
p310
aVperm_android.permission.WRITE_SETTINGS
p311
aVperm_android.permission.WRITE_SMS
p312
aVperm_android.permission.WRITE_SYNC_SETTINGS
p313
aVperm_ch.asvz.asvz.permission.C2D_MESSAGE
p314
aVperm_ch.jobup.shell.permission.C2D_MESSAGE
p315
aVperm_ch.mobilemed.echo112.permission.C2D_MESSAGE
p316
aVperm_ch.poinz.permission.C2D_MESSAGE
p317
aVperm_ch.t_l.tlLive.permission.C2D_MESSAGE
p318
aVperm_com.android.alarm.permission.SET_ALARM
p319
aVperm_com.android.browser.permission.READ_HISTORY_BOOKMARKS
p320
aVperm_com.android.browser.permission.WRITE_HISTORY_BOOKMARKS
p321
aVperm_com.android.gplus.permission.C2D_MESSAGE
p322
aVperm_com.android.launcher.permission.INSTALL_SHORTCUT
p323
aVperm_com.android.launcher.permission.READ_SETTINGS
p324
aVperm_com.android.launcher.permission.UNINSTALL_SHORTCUT
p325
aVperm_com.android.launcher.permission.WRITE_SETTINGS
p326
aVperm_com.android.permission.UNINSTALL_SHORTCUT
p327
aVperm_com.android.services.permission.C2D_MESSAGE
p328
aVperm_com.android.vending.BILLING
p329
aVperm_com.android.vending.CHECK_LICENSE
p330
aVperm_com.devuni.flashlight.CONTROL_LIGHT
p331
aVperm_com.dki.spb_android.permission.C2D_MESSAGE
p332
aVperm_com.entersekt.android.transakt.permission.C2D_MESSAGE
p333
aVperm_com.entertv.permission.C2D_MESSAGE
p334
aVperm_com.eplupdatesinfo.app.permission.C2D_MESSAGE
p335
aVperm_com.example.testbutton.RECEIVE
p336
aVperm_com.footyapps.switzerland.permission.C2D_MESSAGE
p337
aVperm_com.fsck.k9.permission.READ_MESSAGES
p338
aVperm_com.google.android.c2dm.permission.RECEIVE
p339
aVperm_com.google.android.gm.permission.READ_CONTENT_PROVIDER
p340
aVperm_com.google.android.providers.gsf.permission.READ_GSERVICES
p341
aVperm_com.google.android.providers.talk.permission.READ_ONLY
p342
aVperm_com.indeed.android.jobsearch.permission.C2D_MESSAGE
p343
aVperm_com.kaitenmail.permission.READ_MESSAGES
p344
aVperm_com.ovulation.period.permission.C2D_MESSAGE
p345
aVperm_com.revesoft.itelmobiledialer.permission.C2D_MESSAGE
p346
aVperm_com.sec.android.provider.badge.permission.READ
p347
aVperm_com.societedeservice.adhaa.permission.C2D_MESSAGE
p348
aVperm_com.societedeservice.adhha.permission.C2D_MESSAGE
p349
aVperm_com.wKeralaLotteryResultsToday.permission.C2D_MESSAGE
p350
aVperm_com.wNigeriacamera2.permission.C2D_MESSAGE
p351
aVperm_com.zinn.Gpsrouteaddressfinder.permission.MAPS_RECEIVE
p352
aVperm_de.etecture.ekz.onleihe.permission.C2D_MESSAGE
p353
aVperm_de.hafas.android.zvv.permission.C2D_MESSAGE
p354
aVperm_de.hafas.android.zvv.permission.MAPS_RECEIVE
p355
aVperm_droid.permission.INSTALL_PACKAGES
p356
aVperm_es.android.velvettshop.permission.C2D_MESSAGE
p357
aVperm_livemobilelocationtracker.teccreations.permission.MAPS_RECEIVE
p358
aVperm_menodag.menodagq8.permission.C2D_MESSAGE
p359
aVsig_android_hidden_payload
p360
aVsig_android_packer
p361
aVsig_application_contains_arm_binaries
p362
aVsig_application_contains_dex
p363
aVsig_application_contains_jar
p364
aVsig_application_contains_so
p365
aVsig_application_device_admin
p366
aVsig_application_dropped_dex
p367
aVsig_application_dropped_files
p368
aVsig_application_dropped_so
p369
aVsig_application_executed_shell_command
p370
aVsig_application_fingerprint
p371
aVsig_application_monitors_browser_history
p372
aVsig_application_package_reference
p373
aVsig_application_package_reference_dynamic
p374
aVsig_application_queried_account_info
p375
aVsig_application_queried_installed_apps
p376
aVsig_application_queried_private_information
p377
aVsig_application_queried_sms_messages
p378
aVsig_application_recording_audio
p379
aVsig_application_reflection
p380
aVsig_application_registered_receiver_runtime
p381
aVsig_application_sent_sms_messages
p382
asS'dtype'
p383
cnumpy
float64
p384
sS'vocabulary_'
p385
(dp386
g218
I209
sg104
I95
sg9
I0
sg335
I326
sg164
I155
sg322
I313
sg333
I324
sg356
I347
sg207
I198
sg274
I265
sg330
I321
sg285
I276
sg98
I89
sg118
I109
sg66
I57
sg229
I220
sg315
I306
sg10
I1
sg59
I50
sg11
I2
sg55
I46
sg169
I160
sg204
I195
sg202
I193
sg76
I67
sg222
I213
sg279
I270
sg345
I336
sg376
I367
sg359
I350
sg255
I246
sg212
I203
sg293
I284
sg65
I56
sg249
I240
sg334
I325
sg257
I248
sg378
I369
sg326
I317
sg136
I127
sg68
I59
sg147
I138
sg27
I18
sg361
I352
sg22
I13
sg313
I304
sg243
I234
sg23
I14
sg33
I24
sg108
I99
sg44
I35
sg275
I266
sg208
I199
sg309
I300
sg372
I363
sg211
I202
sg141
I132
sg191
I182
sg355
I346
sg67
I58
sg283
I274
sg21
I12
sg184
I175
sg373
I364
sg146
I137
sg41
I32
sg107
I98
sg193
I184
sg251
I242
sg25
I16
sg75
I66
sg154
I145
sg363
I354
sg180
I171
sg366
I357
sg70
I61
sg343
I334
sg201
I192
sg78
I69
sg190
I181
sg109
I100
sg174
I165
sg287
I278
sg336
I327
sg88
I79
sg92
I83
sg163
I154
sg86
I77
sg248
I239
sg106
I97
sg349
I340
sg183
I174
sg105
I96
sg245
I236
sg206
I197
sg268
I259
sg122
I113
sg269
I260
sg264
I255
sg362
I353
sg219
I210
sg156
I147
sg17
I8
sg380
I371
sg176
I167
sg216
I207
sg239
I230
sg177
I168
sg354
I345
sg277
I268
sg259
I250
sg52
I43
sg375
I366
sg270
I261
sg69
I60
sg197
I188
sg209
I200
sg90
I81
sg311
I302
sg227
I218
sg328
I319
sg294
I285
sg290
I281
sg369
I360
sg182
I173
sg175
I166
sg298
I289
sg240
I231
sg181
I172
sg38
I29
sg16
I7
sg358
I349
sg295
I286
sg306
I297
sg186
I177
sg263
I254
sg305
I296
sg228
I219
sg58
I49
sg123
I114
sg280
I271
sg320
I311
sg162
I153
sg327
I318
sg189
I180
sg316
I307
sg37
I28
sg26
I17
sg73
I64
sg281
I272
sg276
I267
sg307
I298
sg144
I135
sg205
I196
sg303
I294
sg24
I15
sg344
I335
sg297
I288
sg135
I126
sg149
I140
sg29
I20
sg346
I337
sg273
I264
sg115
I106
sg262
I253
sg199
I190
sg241
I232
sg286
I277
sg134
I125
sg62
I53
sg196
I187
sg381
I372
sg87
I78
sg155
I146
sg18
I9
sg267
I258
sg43
I34
sg165
I156
sg150
I141
sg167
I158
sg340
I331
sg314
I305
sg348
I339
sg110
I101
sg235
I226
sg133
I124
sg35
I26
sg103
I94
sg364
I355
sg114
I105
sg347
I338
sg324
I315
sg51
I42
sg284
I275
sg46
I37
sg160
I151
sg159
I150
sg371
I362
sg131
I122
sg124
I115
sg101
I92
sg253
I244
sg112
I103
sg20
I11
sg331
I322
sg84
I75
sg53
I44
sg117
I108
sg271
I262
sg220
I211
sg178
I169
sg19
I10
sg308
I299
sg288
I279
sg289
I280
sg113
I104
sg81
I72
sg301
I292
sg247
I238
sg357
I348
sg12
I3
sg60
I51
sg188
I179
sg338
I329
sg237
I228
sg125
I116
sg40
I31
sg319
I310
sg337
I328
sg242
I233
sg99
I90
sg34
I25
sg368
I359
sg310
I301
sg63
I54
sg224
I215
sg272
I263
sg217
I208
sg261
I252
sg13
I4
sg230
I221
sg30
I21
sg102
I93
sg323
I314
sg353
I344
sg238
I229
sg203
I194
sg382
I373
sg266
I257
sg329
I320
sg258
I249
sg282
I273
sg300
I291
sg332
I323
sg93
I84
sg341
I332
sg339
I330
sg171
I162
sg292
I283
sg54
I45
sg185
I176
sg140
I131
sg367
I358
sg77
I68
sg83
I74
sg148
I139
sg94
I85
sg138
I129
sg166
I157
sg145
I136
sg36
I27
sg352
I343
sg265
I256
sg321
I312
sg302
I293
sg64
I55
sg233
I224
sg71
I62
sg153
I144
sg168
I159
sg151
I142
sg72
I63
sg254
I245
sg187
I178
sg213
I204
sg128
I119
sg14
I5
sg139
I130
sg95
I86
sg304
I295
sg351
I342
sg379
I370
sg198
I189
sg97
I88
sg278
I269
sg57
I48
sg74
I65
sg143
I134
sg194
I185
sg370
I361
sg116
I107
sg48
I39
sg119
I110
sg15
I6
sg31
I22
sg374
I365
sg45
I36
sg296
I287
sg170
I161
sg161
I152
sg82
I73
sg173
I164
sg365
I356
sg96
I87
sg317
I308
sg42
I33
sg252
I243
sg152
I143
sg325
I316
sg111
I102
sg210
I201
sg260
I251
sg312
I303
sg234
I225
sg225
I216
sg215
I206
sg142
I133
sg195
I186
sg126
I117
sg318
I309
sg85
I76
sg127
I118
sg172
I163
sg130
I121
sg91
I82
sg214
I205
sg360
I351
sg80
I71
sg231
I222
sg299
I290
sg192
I183
sg157
I148
sg39
I30
sg232
I223
sg246
I237
sg377
I368
sg221
I212
sg132
I123
sg179
I170
sg89
I80
sg100
I91
sg32
I23
sg200
I191
sg49
I40
sg342
I333
sg121
I112
sg129
I120
sg47
I38
sg244
I235
sg28
I19
sg56
I47
sg79
I70
sg291
I282
sg223
I214
sg250
I241
sg137
I128
sg256
I247
sg61
I52
sg158
I149
sg226
I217
sg236
I227
sg120
I111
sg50
I41
sg350
I341
ssS'separator'
p387
S'='
p388
sS'sparse'
p389
I00
sb.